; Function Attrs: mustprogress nofree norecurse nosync nounwind willreturn memory(argmem: read) uwtable
define hidden { i64, i64 } @_ZN10duckdb_re28Compiler8EndRangeEv(ptr noundef nonnull readonly align 8 captures(none) dereferenceable(228) %0) local_unnamed_addr #13 align 2 {
  %2 = getelementptr inbounds nuw i8, ptr %0, i64 208
  %.sroa.0.0.copyload = load i64, ptr %2, align 8
  %.sroa.2.0..sroa_idx = getelementptr inbounds nuw i8, ptr %0, i64 216
  %.sroa.2.0.copyload = load i64, ptr %.sroa.2.0..sroa_idx, align 8
  %.fca.0.insert = insertvalue { i64, i64 } poison, i64 %.sroa.0.0.copyload, 0
  %.fca.1.insert = insertvalue { i64, i64 } %.fca.0.insert, i64 %.sroa.2.0.copyload, 1
  ret { i64, i64 } %.fca.1.insert
}